target datalayout = "e-m:e-p270:32:32-p271:32:32-p272:64:64-i64:64-i128:128-f80:128-n8:16:32:64-S128"
target triple = "x86_64-pc-linux-gnu"

%struct.archive_read = type { %struct.archive, ptr, i32, i64, i64, %struct.archive_read_client, [16 x %struct.archive_read_filter_bidder], ptr, i32, i64, i32, i32, [16 x %struct.archive_format_descriptor], ptr, ptr, ptr, %struct.anon }
%struct.archive = type { i32, i32, ptr, i32, ptr, i32, i32, ptr, %struct.archive_string, ptr, i32, i32, ptr, ptr, i64, i64, i64, i8, i64 }
%struct.archive_string = type { ptr, i64, i64 }
%struct.archive_read_client = type { ptr, ptr, ptr, ptr, ptr, ptr, i32, i32, i64, ptr }
%struct.archive_read_filter_bidder = type { ptr, ptr, ptr }
%struct.archive_format_descriptor = type { ptr, ptr, ptr, ptr, ptr, ptr, ptr, ptr, ptr, ptr, ptr }
%struct.anon = type { ptr, ptr, i32, ptr, ptr }
%struct.zip = type { %struct.archive_string, i64, i64, i64, i64, i32, ptr, %struct.archive_rb_tree, %struct.archive_rb_tree, i64, ptr, i64, i64, i64, i64, ptr, i8, i8, i8, ptr, i64, %struct.z_stream_s, i8, %struct.lzma_stream, i8, %struct.bz_stream, i8, ptr, i8, %struct.IByteIn, i64, %struct.CPpmd8, i8, i8, ptr, ptr, ptr, i32, i32, i8, ptr, ptr, i64, i64, i64, %struct.trad_enc_ctx, i8, %struct.archive_crypto_ctx, i8, ptr, i8, i32, i32, i32, i32, i32, i32, i32, ptr, ptr, ptr }
%struct.archive_rb_tree = type { ptr, ptr }
%struct.z_stream_s = type { ptr, i32, i64, ptr, i32, i64, ptr, ptr, ptr, ptr, ptr, i32, i64, i64 }
%struct.lzma_stream = type { ptr, i64, i64, ptr, i64, i64, ptr, ptr, ptr, ptr, ptr, ptr, i64, i64, i64, i64, i32, i32 }
%struct.bz_stream = type { ptr, i32, i32, i32, ptr, i32, i32, i32, ptr, ptr, ptr, ptr }
%struct.IByteIn = type { ptr, ptr }
%struct.CPpmd8 = type { ptr, ptr, ptr, i32, i32, i32, i32, i32, i32, i32, i32, ptr, ptr, ptr, ptr, ptr, i32, i32, i32, i32, i32, %union.anon, [38 x i8], [128 x i8], [38 x i32], [38 x i32], [256 x i8], [260 x i8], %struct.CPpmd_See, [24 x [32 x %struct.CPpmd_See]], [25 x [64 x i16]] }
%union.anon = type { ptr }
%struct.CPpmd_See = type { i16, i8, i8 }
%struct.trad_enc_ctx = type { [3 x i32] }
%struct.archive_crypto_ctx = type { ptr, ptr, [32 x i8], i32, [16 x i8], [16 x i8], i32 }
%struct.ZSTD_outBuffer_s = type { ptr, i64, i64 }
%struct.ZSTD_inBuffer_s = type { ptr, i64, i64 }

@.str.101 = private unnamed_addr constant [25 x i8] c"Truncated zstd file body\00", align 1
@.str.102 = private unnamed_addr constant [36 x i8] c"Error during zstd decompression: %s\00", align 1
@.str.103 = private unnamed_addr constant [41 x i8] c"Error initializing zstd decompressor: %s\00", align 1
@.str.104 = private unnamed_addr constant [33 x i8] c"No memory for Zstd decompression\00", align 1

; Function Attrs: nounwind uwtable
define internal i32 @zipx_zstd_init(ptr noundef %0, ptr noundef %1) #0 {
  %3 = alloca i32, align 4
  %4 = alloca ptr, align 8
  %5 = alloca ptr, align 8
  %6 = alloca i64, align 8
  %7 = alloca i32, align 4
  store ptr %0, ptr %4, align 8, !tbaa !11
  store ptr %1, ptr %5, align 8, !tbaa !13
  call void @llvm.lifetime.start.p0(i64 8, ptr %6) #11
  %8 = load ptr, ptr %5, align 8, !tbaa !13
  %9 = getelementptr inbounds nuw %struct.zip, ptr %8, i32 0, i32 28
  %10 = load i8, ptr %9, align 8, !tbaa !105
  %11 = icmp ne i8 %10, 0
  br i1 %11, label %12, label %19

12:                                               ; preds = %2
  %13 = load ptr, ptr %5, align 8, !tbaa !13
  %14 = getelementptr inbounds nuw %struct.zip, ptr %13, i32 0, i32 27
  %15 = load ptr, ptr %14, align 8, !tbaa !106
  %16 = call i64 @ZSTD_freeDStream(ptr noundef %15)
  %17 = load ptr, ptr %5, align 8, !tbaa !13
  %18 = getelementptr inbounds nuw %struct.zip, ptr %17, i32 0, i32 28
  store i8 0, ptr %18, align 8, !tbaa !105
  br label %19

19:                                               ; preds = %12, %2
  %20 = call ptr @ZSTD_createDStream()
  %21 = load ptr, ptr %5, align 8, !tbaa !13
  %22 = getelementptr inbounds nuw %struct.zip, ptr %21, i32 0, i32 27
  store ptr %20, ptr %22, align 8, !tbaa !106
  %23 = load ptr, ptr %5, align 8, !tbaa !13
  %24 = getelementptr inbounds nuw %struct.zip, ptr %23, i32 0, i32 27
  %25 = load ptr, ptr %24, align 8, !tbaa !106
  %26 = call i64 @ZSTD_initDStream(ptr noundef %25)
  store i64 %26, ptr %6, align 8, !tbaa !43
  %27 = load i64, ptr %6, align 8, !tbaa !43
  %28 = call i32 @ZSTD_isError(i64 noundef %27)
  %29 = icmp ne i32 %28, 0
  br i1 %29, label %30, label %35

30:                                               ; preds = %19
  %31 = load ptr, ptr %4, align 8, !tbaa !11
  %32 = getelementptr inbounds nuw %struct.archive_read, ptr %31, i32 0, i32 0
  %33 = load i64, ptr %6, align 8, !tbaa !43
  %34 = call ptr @ZSTD_getErrorName(i64 noundef %33)
  call void (ptr, i32, ptr, ...) @archive_set_error(ptr noundef %32, i32 noundef -1, ptr noundef @.str.103, ptr noundef %34)
  store i32 -25, ptr %3, align 4
  store i32 1, ptr %7, align 4
  br label %60

35:                                               ; preds = %19
  %36 = load ptr, ptr %5, align 8, !tbaa !13
  %37 = getelementptr inbounds nuw %struct.zip, ptr %36, i32 0, i32 28
  store i8 1, ptr %37, align 8, !tbaa !105
  %38 = load ptr, ptr %5, align 8, !tbaa !13
  %39 = getelementptr inbounds nuw %struct.zip, ptr %38, i32 0, i32 19
  %40 = load ptr, ptr %39, align 8, !tbaa !107
  call void @free(ptr noundef %40) #11
  %41 = call i64 @ZSTD_DStreamOutSize()
  %42 = load ptr, ptr %5, align 8, !tbaa !13
  %43 = getelementptr inbounds nuw %struct.zip, ptr %42, i32 0, i32 20
  store i64 %41, ptr %43, align 8, !tbaa !158
  %44 = load ptr, ptr %5, align 8, !tbaa !13
  %45 = getelementptr inbounds nuw %struct.zip, ptr %44, i32 0, i32 20
  %46 = load i64, ptr %45, align 8, !tbaa !158
  %47 = call noalias ptr @malloc(i64 noundef %46) #14
  %48 = load ptr, ptr %5, align 8, !tbaa !13
  %49 = getelementptr inbounds nuw %struct.zip, ptr %48, i32 0, i32 19
  store ptr %47, ptr %49, align 8, !tbaa !107
  %50 = load ptr, ptr %5, align 8, !tbaa !13
  %51 = getelementptr inbounds nuw %struct.zip, ptr %50, i32 0, i32 19
  %52 = load ptr, ptr %51, align 8, !tbaa !107
  %53 = icmp eq ptr %52, null
  br i1 %53, label %54, label %57

54:                                               ; preds = %35
  %55 = load ptr, ptr %4, align 8, !tbaa !11
  %56 = getelementptr inbounds nuw %struct.archive_read, ptr %55, i32 0, i32 0
  call void (ptr, i32, ptr, ...) @archive_set_error(ptr noundef %56, i32 noundef 12, ptr noundef @.str.104)
  store i32 -30, ptr %3, align 4
  store i32 1, ptr %7, align 4
  br label %60

57:                                               ; preds = %35
  %58 = load ptr, ptr %5, align 8, !tbaa !13
  %59 = getelementptr inbounds nuw %struct.zip, ptr %58, i32 0, i32 17
  store i8 1, ptr %59, align 1, !tbaa !123
  store i32 0, ptr %3, align 4
  store i32 1, ptr %7, align 4
  br label %60

60:                                               ; preds = %57, %54, %30
  call void @llvm.lifetime.end.p0(i64 8, ptr %6) #11
  %61 = load i32, ptr %3, align 4
  ret i32 %61
}

; Function Attrs: nounwind uwtable
define internal i32 @zip_read_data_zipx_zstd(ptr noundef %0, ptr noundef %1, ptr noundef %2, ptr noundef %3) #0 {
  %5 = alloca i32, align 4
  %6 = alloca ptr, align 8
  %7 = alloca ptr, align 8
  %8 = alloca ptr, align 8
  %9 = alloca ptr, align 8
  %10 = alloca ptr, align 8
  %11 = alloca i64, align 8
  %12 = alloca i64, align 8
  %13 = alloca i64, align 8
  %14 = alloca ptr, align 8
  %15 = alloca i32, align 4
  %16 = alloca i64, align 8
  %17 = alloca i64, align 8
  %18 = alloca %struct.ZSTD_outBuffer_s, align 8
  %19 = alloca %struct.ZSTD_inBuffer_s, align 8
  %20 = alloca i32, align 4
  %21 = alloca %struct.ZSTD_outBuffer_s, align 8
  store ptr %0, ptr %6, align 8, !tbaa !11
  store ptr %1, ptr %7, align 8, !tbaa !44
  store ptr %2, ptr %8, align 8, !tbaa !81
  store ptr %3, ptr %9, align 8, !tbaa !81
  call void @llvm.lifetime.start.p0(i64 8, ptr %10) #11
  %22 = load ptr, ptr %6, align 8, !tbaa !11
  %23 = getelementptr inbounds nuw %struct.archive_read, ptr %22, i32 0, i32 13
  %24 = load ptr, ptr %23, align 8, !tbaa !47
  %25 = getelementptr inbounds nuw %struct.archive_format_descriptor, ptr %24, i32 0, i32 0
  %26 = load ptr, ptr %25, align 8, !tbaa !60
  store ptr %26, ptr %10, align 8, !tbaa !13
  call void @llvm.lifetime.start.p0(i64 8, ptr %11) #11
  store i64 0, ptr %11, align 8, !tbaa !43
  call void @llvm.lifetime.start.p0(i64 8, ptr %12) #11
  call void @llvm.lifetime.start.p0(i64 8, ptr %13) #11
  call void @llvm.lifetime.start.p0(i64 8, ptr %14) #11
  call void @llvm.lifetime.start.p0(i64 4, ptr %15) #11
  call void @llvm.lifetime.start.p0(i64 8, ptr %16) #11
  call void @llvm.lifetime.start.p0(i64 8, ptr %17) #11
  call void @llvm.lifetime.start.p0(i64 24, ptr %18) #11
  call void @llvm.lifetime.start.p0(i64 24, ptr %19) #11
  %27 = load ptr, ptr %10, align 8, !tbaa !13
  %28 = getelementptr inbounds nuw %struct.zip, ptr %27, i32 0, i32 17
  %29 = load i8, ptr %28, align 1, !tbaa !123
  %30 = icmp ne i8 %29, 0
  br i1 %30, label %40, label %31

31:                                               ; preds = %4
  %32 = load ptr, ptr %6, align 8, !tbaa !11
  %33 = load ptr, ptr %10, align 8, !tbaa !13
  %34 = call i32 @zipx_zstd_init(ptr noundef %32, ptr noundef %33)
  store i32 %34, ptr %15, align 4, !tbaa !9
  %35 = load i32, ptr %15, align 4, !tbaa !9
  %36 = icmp ne i32 %35, 0
  br i1 %36, label %37, label %39

37:                                               ; preds = %31
  %38 = load i32, ptr %15, align 4, !tbaa !9
  store i32 %38, ptr %5, align 4
  store i32 1, ptr %20, align 4
  br label %148

39:                                               ; preds = %31
  br label %40

40:                                               ; preds = %39, %4
  %41 = load ptr, ptr %6, align 8, !tbaa !11
  %42 = call ptr @__archive_read_ahead(ptr noundef %41, i64 noundef 1, ptr noundef %11)
  store ptr %42, ptr %14, align 8, !tbaa !44
  %43 = load i64, ptr %11, align 8, !tbaa !43
  %44 = icmp slt i64 %43, 0
  br i1 %44, label %45, label %48

45:                                               ; preds = %40
  %46 = load ptr, ptr %6, align 8, !tbaa !11
  %47 = getelementptr inbounds nuw %struct.archive_read, ptr %46, i32 0, i32 0
  call void (ptr, i32, ptr, ...) @archive_set_error(ptr noundef %47, i32 noundef 84, ptr noundef @.str.101)
  store i32 -30, ptr %5, align 4
  store i32 1, ptr %20, align 4
  br label %148

48:                                               ; preds = %40
  %49 = load ptr, ptr %10, align 8, !tbaa !13
  %50 = getelementptr inbounds nuw %struct.zip, ptr %49, i32 0, i32 11
  %51 = load i64, ptr %50, align 8, !tbaa !98
  %52 = load i64, ptr %11, align 8, !tbaa !43
  %53 = icmp slt i64 %51, %52
  br i1 %53, label %54, label %58

54:                                               ; preds = %48
  %55 = load ptr, ptr %10, align 8, !tbaa !13
  %56 = getelementptr inbounds nuw %struct.zip, ptr %55, i32 0, i32 11
  %57 = load i64, ptr %56, align 8, !tbaa !98
  br label %60

58:                                               ; preds = %48
  %59 = load i64, ptr %11, align 8, !tbaa !43
  br label %60

60:                                               ; preds = %58, %54
  %61 = phi i64 [ %57, %54 ], [ %59, %58 ]
  store i64 %61, ptr %12, align 8, !tbaa !43
  %62 = load i64, ptr %12, align 8, !tbaa !43
  %63 = icmp slt i64 %62, 1
  br i1 %63, label %64, label %67

64:                                               ; preds = %60
  %65 = load ptr, ptr %6, align 8, !tbaa !11
  %66 = getelementptr inbounds nuw %struct.archive_read, ptr %65, i32 0, i32 0
  call void (ptr, i32, ptr, ...) @archive_set_error(ptr noundef %66, i32 noundef 84, ptr noundef @.str.101)
  store i32 -30, ptr %5, align 4
  store i32 1, ptr %20, align 4
  br label %148

67:                                               ; preds = %60
  %68 = load ptr, ptr %14, align 8, !tbaa !44
  %69 = getelementptr inbounds nuw %struct.ZSTD_inBuffer_s, ptr %19, i32 0, i32 0
  store ptr %68, ptr %69, align 8, !tbaa !205
  %70 = load i64, ptr %12, align 8, !tbaa !43
  %71 = getelementptr inbounds nuw %struct.ZSTD_inBuffer_s, ptr %19, i32 0, i32 1
  store i64 %70, ptr %71, align 8, !tbaa !207
  %72 = getelementptr inbounds nuw %struct.ZSTD_inBuffer_s, ptr %19, i32 0, i32 2
  store i64 0, ptr %72, align 8, !tbaa !208
  %73 = getelementptr inbounds nuw %struct.ZSTD_outBuffer_s, ptr %21, i32 0, i32 0
  %74 = load ptr, ptr %10, align 8, !tbaa !13
  %75 = getelementptr inbounds nuw %struct.zip, ptr %74, i32 0, i32 19
  %76 = load ptr, ptr %75, align 8, !tbaa !107
  store ptr %76, ptr %73, align 8, !tbaa !209
  %77 = getelementptr inbounds nuw %struct.ZSTD_outBuffer_s, ptr %21, i32 0, i32 1
  %78 = load ptr, ptr %10, align 8, !tbaa !13
  %79 = getelementptr inbounds nuw %struct.zip, ptr %78, i32 0, i32 20
  %80 = load i64, ptr %79, align 8, !tbaa !158
  store i64 %80, ptr %77, align 8, !tbaa !211
  %81 = getelementptr inbounds nuw %struct.ZSTD_outBuffer_s, ptr %21, i32 0, i32 2
  store i64 0, ptr %81, align 8, !tbaa !212
  call void @llvm.memcpy.p0.p0.i64(ptr align 8 %18, ptr align 8 %21, i64 24, i1 false), !tbaa.struct !213
  %82 = load ptr, ptr %10, align 8, !tbaa !13
  %83 = getelementptr inbounds nuw %struct.zip, ptr %82, i32 0, i32 27
  %84 = load ptr, ptr %83, align 8, !tbaa !106
  %85 = call i64 @ZSTD_decompressStream(ptr noundef %84, ptr noundef %18, ptr noundef %19)
  store i64 %85, ptr %16, align 8, !tbaa !43
  %86 = load i64, ptr %16, align 8, !tbaa !43
  %87 = call i32 @ZSTD_isError(i64 noundef %86)
  %88 = icmp ne i32 %87, 0
  br i1 %88, label %89, label %94

89:                                               ; preds = %67
  %90 = load ptr, ptr %6, align 8, !tbaa !11
  %91 = getelementptr inbounds nuw %struct.archive_read, ptr %90, i32 0, i32 0
  %92 = load i64, ptr %16, align 8, !tbaa !43
  %93 = call ptr @ZSTD_getErrorName(i64 noundef %92)
  call void (ptr, i32, ptr, ...) @archive_set_error(ptr noundef %91, i32 noundef -1, ptr noundef @.str.102, ptr noundef %93)
  store i32 -30, ptr %5, align 4
  store i32 1, ptr %20, align 4
  br label %148

94:                                               ; preds = %67
  %95 = load i64, ptr %16, align 8, !tbaa !43
  %96 = icmp eq i64 %95, 0
  br i1 %96, label %97, label %119

97:                                               ; preds = %94
  %98 = getelementptr inbounds nuw %struct.ZSTD_inBuffer_s, ptr %19, i32 0, i32 2
  %99 = load i64, ptr %98, align 8, !tbaa !208
  %100 = getelementptr inbounds nuw %struct.ZSTD_inBuffer_s, ptr %19, i32 0, i32 1
  %101 = load i64, ptr %100, align 8, !tbaa !207
  %102 = icmp eq i64 %99, %101
  br i1 %102, label %103, label %118

103:                                              ; preds = %97
  %104 = getelementptr inbounds nuw %struct.ZSTD_outBuffer_s, ptr %18, i32 0, i32 2
  %105 = load i64, ptr %104, align 8, !tbaa !212
  %106 = getelementptr inbounds nuw %struct.ZSTD_outBuffer_s, ptr %18, i32 0, i32 1
  %107 = load i64, ptr %106, align 8, !tbaa !211
  %108 = icmp ult i64 %105, %107
  br i1 %108, label %109, label %118

109:                                              ; preds = %103
  %110 = load ptr, ptr %10, align 8, !tbaa !13
  %111 = getelementptr inbounds nuw %struct.zip, ptr %110, i32 0, i32 18
  store i8 1, ptr %111, align 2, !tbaa !84
  %112 = load ptr, ptr %10, align 8, !tbaa !13
  %113 = getelementptr inbounds nuw %struct.zip, ptr %112, i32 0, i32 27
  %114 = load ptr, ptr %113, align 8, !tbaa !106
  %115 = call i64 @ZSTD_freeDStream(ptr noundef %114)
  %116 = load ptr, ptr %10, align 8, !tbaa !13
  %117 = getelementptr inbounds nuw %struct.zip, ptr %116, i32 0, i32 28
  store i8 0, ptr %117, align 8, !tbaa !105
  br label %118

118:                                              ; preds = %109, %103, %97
  br label %119

119:                                              ; preds = %118, %94
  %120 = getelementptr inbounds nuw %struct.ZSTD_inBuffer_s, ptr %19, i32 0, i32 2
  %121 = load i64, ptr %120, align 8, !tbaa !208
  store i64 %121, ptr %13, align 8, !tbaa !43
  %122 = load ptr, ptr %6, align 8, !tbaa !11
  %123 = load i64, ptr %13, align 8, !tbaa !43
  %124 = call i64 @__archive_read_consume(ptr noundef %122, i64 noundef %123)
  %125 = getelementptr inbounds nuw %struct.ZSTD_outBuffer_s, ptr %18, i32 0, i32 2
  %126 = load i64, ptr %125, align 8, !tbaa !212
  store i64 %126, ptr %17, align 8, !tbaa !43
  %127 = load i64, ptr %13, align 8, !tbaa !43
  %128 = load ptr, ptr %10, align 8, !tbaa !13
  %129 = getelementptr inbounds nuw %struct.zip, ptr %128, i32 0, i32 11
  %130 = load i64, ptr %129, align 8, !tbaa !98
  %131 = sub nsw i64 %130, %127
  store i64 %131, ptr %129, align 8, !tbaa !98
  %132 = load i64, ptr %13, align 8, !tbaa !43
  %133 = load ptr, ptr %10, align 8, !tbaa !13
  %134 = getelementptr inbounds nuw %struct.zip, ptr %133, i32 0, i32 12
  %135 = load i64, ptr %134, align 8, !tbaa !96
  %136 = add nsw i64 %135, %132
  store i64 %136, ptr %134, align 8, !tbaa !96
  %137 = load i64, ptr %17, align 8, !tbaa !43
  %138 = load ptr, ptr %10, align 8, !tbaa !13
  %139 = getelementptr inbounds nuw %struct.zip, ptr %138, i32 0, i32 13
  %140 = load i64, ptr %139, align 8, !tbaa !83
  %141 = add i64 %140, %137
  store i64 %141, ptr %139, align 8, !tbaa !83
  %142 = load i64, ptr %17, align 8, !tbaa !43
  %143 = load ptr, ptr %8, align 8, !tbaa !81
  store i64 %142, ptr %143, align 8, !tbaa !43
  %144 = load ptr, ptr %10, align 8, !tbaa !13
  %145 = getelementptr inbounds nuw %struct.zip, ptr %144, i32 0, i32 19
  %146 = load ptr, ptr %145, align 8, !tbaa !107
  %147 = load ptr, ptr %7, align 8, !tbaa !44
  store ptr %146, ptr %147, align 8, !tbaa !44
  store i32 0, ptr %5, align 4
  store i32 1, ptr %20, align 4
  br label %148

148:                                              ; preds = %119, %89, %64, %45, %37
  call void @llvm.lifetime.end.p0(i64 24, ptr %19) #11
  call void @llvm.lifetime.end.p0(i64 24, ptr %18) #11
  call void @llvm.lifetime.end.p0(i64 8, ptr %17) #11
  call void @llvm.lifetime.end.p0(i64 8, ptr %16) #11
  call void @llvm.lifetime.end.p0(i64 4, ptr %15) #11
  call void @llvm.lifetime.end.p0(i64 8, ptr %14) #11
  call void @llvm.lifetime.end.p0(i64 8, ptr %13) #11
  call void @llvm.lifetime.end.p0(i64 8, ptr %12) #11
  call void @llvm.lifetime.end.p0(i64 8, ptr %11) #11
  call void @llvm.lifetime.end.p0(i64 8, ptr %10) #11
  %149 = load i32, ptr %5, align 4
  ret i32 %149
}