; Function Attrs: nounwind uwtable
define internal fastcc range(i32 -30, 1) i32 @zip_read_data_zipx_zstd(ptr noundef %0, ptr noundef writeonly captures(none) %1, ptr noundef writeonly captures(none) %2) unnamed_addr #0 {
  %4 = alloca i64, align 8
  %5 = alloca %struct.ZSTD_outBuffer_s, align 8
  %6 = alloca %struct.ZSTD_inBuffer_s, align 8
  %7 = getelementptr inbounds nuw i8, ptr %0, i64 2072
  %8 = load ptr, ptr %7, align 8, !tbaa !37
  %9 = load ptr, ptr %8, align 8, !tbaa !50
  call void @llvm.lifetime.start.p0(i64 8, ptr nonnull %4) #21
  store i64 0, ptr %4, align 8, !tbaa !69
  call void @llvm.lifetime.start.p0(i64 24, ptr nonnull %5) #21
  call void @llvm.lifetime.start.p0(i64 24, ptr nonnull %6) #21
  %10 = getelementptr inbounds nuw i8, ptr %9, i64 161
  %11 = load i8, ptr %10, align 1, !tbaa !131
  %.not = icmp eq i8 %11, 0
  br i1 %.not, label %12, label %34

12:                                               ; preds = %3
  %13 = getelementptr inbounds nuw i8, ptr %9, i64 544
  %14 = load i8, ptr %13, align 8, !tbaa !99
  %.not.i = icmp eq i8 %14, 0
  br i1 %.not.i, label %19, label %15

15:                                               ; preds = %12
  %16 = getelementptr inbounds nuw i8, ptr %9, i64 536
  %17 = load ptr, ptr %16, align 8, !tbaa !100
  %18 = tail call i64 @ZSTD_freeDStream(ptr noundef %17) #21
  store i8 0, ptr %13, align 8, !tbaa !99
  br label %19

19:                                               ; preds = %15, %12
  %20 = tail call ptr @ZSTD_createDStream() #21
  %21 = getelementptr inbounds nuw i8, ptr %9, i64 536
  store ptr %20, ptr %21, align 8, !tbaa !100
  %22 = tail call i64 @ZSTD_initDStream(ptr noundef %20) #21
  %23 = tail call i32 @ZSTD_isError(i64 noundef %22) #21
  %.not16.i = icmp eq i32 %23, 0
  br i1 %.not16.i, label %26, label %24

24:                                               ; preds = %19
  %25 = tail call ptr @ZSTD_getErrorName(i64 noundef %22) #21
  tail call void (ptr, i32, ptr, ...) @archive_set_error(ptr noundef nonnull %0, i32 noundef -1, ptr noundef nonnull @.str.103, ptr noundef %25) #21
  br label %zipx_zstd_init.exit.thread

26:                                               ; preds = %19
  store i8 1, ptr %13, align 8, !tbaa !99
  %27 = getelementptr inbounds nuw i8, ptr %9, i64 168
  %28 = load ptr, ptr %27, align 8, !tbaa !101
  tail call void @free(ptr noundef %28) #21
  %29 = tail call i64 @ZSTD_DStreamOutSize() #21
  %30 = getelementptr inbounds nuw i8, ptr %9, i64 176
  store i64 %29, ptr %30, align 8, !tbaa !156
  %31 = tail call noalias ptr @malloc(i64 noundef %29) #24
  store ptr %31, ptr %27, align 8, !tbaa !101
  %32 = icmp eq ptr %31, null
  br i1 %32, label %33, label %zipx_zstd_init.exit

33:                                               ; preds = %26
  tail call void (ptr, i32, ptr, ...) @archive_set_error(ptr noundef nonnull %0, i32 noundef 12, ptr noundef nonnull @.str.104) #21
  br label %zipx_zstd_init.exit.thread

zipx_zstd_init.exit:                              ; preds = %26
  store i8 1, ptr %10, align 1, !tbaa !131
  br label %34

34:                                               ; preds = %zipx_zstd_init.exit, %3
  %35 = call ptr @__archive_read_ahead(ptr noundef nonnull %0, i64 noundef 1, ptr noundef nonnull %4) #21
  %36 = load i64, ptr %4, align 8, !tbaa !69
  %37 = icmp slt i64 %36, 0
  br i1 %37, label %38, label %39

38:                                               ; preds = %34
  call void (ptr, i32, ptr, ...) @archive_set_error(ptr noundef nonnull %0, i32 noundef 84, ptr noundef nonnull @.str.101) #21
  br label %zipx_zstd_init.exit.thread

39:                                               ; preds = %34
  %40 = getelementptr inbounds nuw i8, ptr %9, i64 120
  %41 = load i64, ptr %40, align 8, !tbaa !92
  %. = call i64 @llvm.smin.i64(i64 %41, i64 %36)
  %42 = icmp slt i64 %., 1
  br i1 %42, label %43, label %44

43:                                               ; preds = %39
  call void (ptr, i32, ptr, ...) @archive_set_error(ptr noundef nonnull %0, i32 noundef 84, ptr noundef nonnull @.str.101) #21
  br label %zipx_zstd_init.exit.thread

44:                                               ; preds = %39
  store ptr %35, ptr %6, align 8, !tbaa !189
  %45 = getelementptr inbounds nuw i8, ptr %6, i64 8
  store i64 %., ptr %45, align 8, !tbaa !191
  %46 = getelementptr inbounds nuw i8, ptr %6, i64 16
  store i64 0, ptr %46, align 8, !tbaa !192
  %47 = getelementptr inbounds nuw i8, ptr %9, i64 168
  %48 = load ptr, ptr %47, align 8, !tbaa !101
  %49 = getelementptr inbounds nuw i8, ptr %9, i64 176
  %50 = load i64, ptr %49, align 8, !tbaa !156
  store ptr %48, ptr %5, align 8, !tbaa !73
  %.sroa.2.0..sroa_idx = getelementptr inbounds nuw i8, ptr %5, i64 8
  store i64 %50, ptr %.sroa.2.0..sroa_idx, align 8, !tbaa !69
  %.sroa.3.0..sroa_idx = getelementptr inbounds nuw i8, ptr %5, i64 16
  store i64 0, ptr %.sroa.3.0..sroa_idx, align 8, !tbaa !69
  %51 = getelementptr inbounds nuw i8, ptr %9, i64 536
  %52 = load ptr, ptr %51, align 8, !tbaa !100
  %53 = call i64 @ZSTD_decompressStream(ptr noundef %52, ptr noundef nonnull %5, ptr noundef nonnull %6) #21
  %54 = call i32 @ZSTD_isError(i64 noundef %53) #21
  %.not41 = icmp eq i32 %54, 0
  br i1 %.not41, label %57, label %55

55:                                               ; preds = %44
  %56 = call ptr @ZSTD_getErrorName(i64 noundef %53) #21
  call void (ptr, i32, ptr, ...) @archive_set_error(ptr noundef nonnull %0, i32 noundef -1, ptr noundef nonnull @.str.102, ptr noundef %56) #21
  br label %zipx_zstd_init.exit.thread

57:                                               ; preds = %44
  %58 = icmp eq i64 %53, 0
  %.pre3 = load i64, ptr %46, align 8, !tbaa !192
  %59 = load i64, ptr %45, align 8
  %60 = icmp eq i64 %.pre3, %59
  %or.cond = select i1 %58, i1 %60, i1 false
  br i1 %or.cond, label %61, label %70

61:                                               ; preds = %57
  %62 = load i64, ptr %.sroa.3.0..sroa_idx, align 8, !tbaa !193
  %63 = load i64, ptr %.sroa.2.0..sroa_idx, align 8, !tbaa !195
  %64 = icmp ult i64 %62, %63
  br i1 %64, label %65, label %70

65:                                               ; preds = %61
  %66 = getelementptr inbounds nuw i8, ptr %9, i64 162
  store i8 1, ptr %66, align 2, !tbaa !74
  %67 = load ptr, ptr %51, align 8, !tbaa !100
  %68 = call i64 @ZSTD_freeDStream(ptr noundef %67) #21
  %69 = getelementptr inbounds nuw i8, ptr %9, i64 544
  store i8 0, ptr %69, align 8, !tbaa !99
  %.pre = load i64, ptr %46, align 8, !tbaa !192
  br label %70

70:                                               ; preds = %61, %65, %57
  %71 = phi i64 [ %.pre3, %61 ], [ %.pre, %65 ], [ %.pre3, %57 ]
  %72 = call i64 @__archive_read_consume(ptr noundef nonnull %0, i64 noundef %71) #21
  %73 = load i64, ptr %.sroa.3.0..sroa_idx, align 8, !tbaa !193
  %74 = load i64, ptr %40, align 8, !tbaa !92
  %75 = sub nsw i64 %74, %71
  store i64 %75, ptr %40, align 8, !tbaa !92
  %76 = getelementptr inbounds nuw i8, ptr %9, i64 128
  %77 = load i64, ptr %76, align 8, !tbaa !88
  %78 = add nsw i64 %77, %71
  store i64 %78, ptr %76, align 8, !tbaa !88
  %79 = getelementptr inbounds nuw i8, ptr %9, i64 136
  %80 = load i64, ptr %79, align 8, !tbaa !72
  %81 = add i64 %80, %73
  store i64 %81, ptr %79, align 8, !tbaa !72
  store i64 %73, ptr %2, align 8, !tbaa !69
  %82 = load ptr, ptr %47, align 8, !tbaa !101
  store ptr %82, ptr %1, align 8, !tbaa !73
  br label %zipx_zstd_init.exit.thread

zipx_zstd_init.exit.thread:                       ; preds = %33, %24, %70, %55, %43, %38
  %.0 = phi i32 [ -30, %38 ], [ -30, %43 ], [ -30, %55 ], [ 0, %70 ], [ -30, %33 ], [ -25, %24 ]
  call void @llvm.lifetime.end.p0(i64 24, ptr nonnull %6) #21
  call void @llvm.lifetime.end.p0(i64 24, ptr nonnull %5) #21
  call void @llvm.lifetime.end.p0(i64 8, ptr nonnull %4) #21
  ret i32 %.0
}